target datalayout = "e-m:e-p270:32:32-p271:32:32-p272:64:64-i64:64-i128:128-f80:128-n8:16:32:64-S128"
target triple = "x86_64-pc-linux-gnu"

%struct.PyMemAllocatorEx = type { ptr, ptr, ptr, ptr, ptr }
%struct.alloc_hook_t = type { %struct.PyMemAllocatorEx, i64, i64, i64, ptr, i64, ptr, ptr }

; Function Attrs: nounwind uwtable
define internal ptr @hook_malloc(ptr noundef %0, i64 noundef %1) #0 {
  %3 = alloca ptr, align 8
  %4 = alloca i64, align 8
  %5 = alloca ptr, align 8
  store ptr %0, ptr %3, align 8, !tbaa !18
  store i64 %1, ptr %4, align 8, !tbaa !22
  call void @llvm.lifetime.start.p0(i64 8, ptr %5) #6
  %6 = load ptr, ptr %3, align 8, !tbaa !18
  store ptr %6, ptr %5, align 8, !tbaa !18
  %7 = load ptr, ptr %3, align 8, !tbaa !18
  %8 = load ptr, ptr %5, align 8, !tbaa !18
  %9 = getelementptr inbounds nuw %struct.alloc_hook_t, ptr %8, i32 0, i32 7
  store ptr %7, ptr %9, align 8, !tbaa !39
  %10 = load i64, ptr %4, align 8, !tbaa !22
  %11 = load ptr, ptr %5, align 8, !tbaa !18
  %12 = getelementptr inbounds nuw %struct.alloc_hook_t, ptr %11, i32 0, i32 1
  store i64 %10, ptr %12, align 8, !tbaa !41
  %13 = load ptr, ptr %5, align 8, !tbaa !18
  %14 = getelementptr inbounds nuw %struct.alloc_hook_t, ptr %13, i32 0, i32 0
  %15 = getelementptr inbounds nuw %struct.PyMemAllocatorEx, ptr %14, i32 0, i32 1
  %16 = load ptr, ptr %15, align 8, !tbaa !47
  %17 = load ptr, ptr %5, align 8, !tbaa !18
  %18 = getelementptr inbounds nuw %struct.alloc_hook_t, ptr %17, i32 0, i32 0
  %19 = getelementptr inbounds nuw %struct.PyMemAllocatorEx, ptr %18, i32 0, i32 0
  %20 = load ptr, ptr %19, align 8, !tbaa !48
  %21 = load i64, ptr %4, align 8, !tbaa !22
  %22 = call ptr %16(ptr noundef %20, i64 noundef %21)
  call void @llvm.lifetime.end.p0(i64 8, ptr %5) #6
  ret ptr %22
}