; Function Attrs: nounwind uwtable
define internal ptr @hook_malloc(ptr noundef %0, i64 noundef %1) #0 {
  %3 = getelementptr inbounds nuw i8, ptr %0, i64 88
  store ptr %0, ptr %3, align 8, !tbaa !31
  %4 = getelementptr inbounds nuw i8, ptr %0, i64 40
  store i64 %1, ptr %4, align 8, !tbaa !33
  %5 = getelementptr inbounds nuw i8, ptr %0, i64 8
  %6 = load ptr, ptr %5, align 8, !tbaa !37
  %7 = load ptr, ptr %0, align 8, !tbaa !38
  %8 = tail call ptr %6(ptr noundef %7, i64 noundef %1) #4
  ret ptr %8
}